Certificate:
    Data:
        Version: 3 (0x2)
        Serial Number: 4109 (0x100d)
    Signature Algorithm: sha256WithRSAEncryption
        Issuer: C=US, CN=ca-test.tomcat.apache.org
        Validity
            Not Before: Feb 27 23:25:29 2017 GMT
            Not After : Feb 27 23:25:29 2019 GMT
        Subject: C=US, CN=localhost
        Subject Public Key Info:
            Public Key Algorithm: rsaEncryption
                Public-Key: (2048 bit)
                Modulus:
                    00:ba:d6:b2:32:de:10:53:1f:5d:af:da:d4:3f:64:
                    b3:22:37:fd:4e:16:a3:f0:d6:9e:6e:d3:ee:47:ec:
                    15:b4:b3:0d:80:bf:fc:21:96:8b:1d:40:16:6d:89:
                    35:03:8a:45:8c:c6:6e:2b:66:67:0f:1c:19:cf:62:
                    d5:e6:08:48:a8:df:10:da:4c:47:79:7c:02:97:54:
                    f9:a8:e9:59:50:33:cd:a0:72:fd:e1:e7:5e:3a:43:
                    5c:ff:0c:69:9e:f6:c2:86:71:07:a5:eb:b5:c7:61:
                    f9:e9:fe:3f:26:55:2c:f4:04:7c:c0:bd:cd:2b:88:
                    9c:69:4d:ce:3c:1e:ad:2e:18:96:aa:a0:eb:72:2b:
                    95:99:47:16:90:b5:59:ed:f1:78:cc:8b:01:33:40:
                    c4:e9:b0:3f:ec:89:04:13:5c:9b:22:01:cc:25:cf:
                    40:c1:40:fa:04:a0:b9:b7:f7:d8:73:91:7f:b8:7e:
                    e9:82:20:1f:e9:9c:89:25:28:b5:fa:6f:b7:4a:88:
                    28:68:59:d5:30:52:f9:e4:5b:a6:b4:f8:e4:ed:2f:
                    03:d8:50:61:9a:53:86:1f:ad:aa:0d:5f:f8:52:b5:
                    27:dd:05:82:25:13:a0:d0:10:3c:dd:c0:70:15:24:
                    63:89:22:0e:f0:5a:9a:fa:b0:75:56:06:aa:7f:b0:
                    f7:9b
                Exponent: 65537 (0x10001)
        X509v3 extensions:
            X509v3 Basic Constraints: 
                CA:FALSE
            Netscape Comment: 
                OpenSSL Generated Certificate
            X509v3 Subject Key Identifier: 
                0B:37:2F:D6:48:9C:11:2F:28:AE:DC:47:E6:5E:3A:1D:24:12:0F:1A
            X509v3 Authority Key Identifier: 
                keyid:B0:3B:BC:C9:FA:28:5F:3E:04:1F:9B:6C:C7:8B:68:D8:01:B0:F8:3D

    Signature Algorithm: sha256WithRSAEncryption
         3b:0a:ad:f2:27:26:d4:db:bc:97:e7:4e:52:8b:6c:08:4d:7b:
         e7:66:ec:81:0b:0c:04:f8:b9:92:35:12:c9:b9:ed:d2:5e:b7:
         ac:89:67:72:7e:2b:4f:5b:e3:3a:d1:09:fe:e8:cf:33:ac:a5:
         84:95:7f:48:4d:af:59:87:0b:4c:6f:6a:bf:6b:07:af:33:13:
         19:fd:70:0d:fc:1c:92:04:be:05:b9:96:46:d5:82:a4:f8:3b:
         b0:11:2d:f0:19:25:ba:d6:ce:1c:7a:17:76:c6:80:d2:73:a0:
         1a:01:48:d6:0b:12:a9:3f:50:66:81:1b:e9:9f:1e:5b:6f:d1:
         19:12:14:70:d3:de:4c:ab:d3:83:d6:e5:4f:bb:b3:e5:c6:87:
         16:47:f7:59:4d:9d:52:9d:00:f0:24:7a:1e:6e:14:01:0d:07:
         0c:b6:f7:4e:c0:40:77:65:fd:ac:c7:aa:73:77:f0:44:b1:30:
         ad:65:83:1a:cc:bd:fa:9d:80:29:61:e9:b3:26:e8:3b:55:c7:
         12:79:3e:4d:31:f1:21:d0:4e:5f:1f:73:c3:9f:ce:f9:6c:7e:
         8e:11:10:8e:f6:60:d2:11:ae:0f:24:6e:10:71:42:05:ed:ea:
         4b:41:86:86:84:26:74:ed:46:81:48:34:16:40:e6:df:64:c9:
         c2:7d:6b:1b
-----BEGIN CERTIFICATE-----
MIIDSTCCAjGgAwIBAgICEA0wDQYJKoZIhvcNAQELBQAwMTELMAkGA1UEBhMCVVMx
IjAgBgNVBAMMGWNhLXRlc3QudG9tY2F0LmFwYWNoZS5vcmcwHhcNMTcwMjI3MjMy
NTI5WhcNMTkwMjI3MjMyNTI5WjAhMQswCQYDVQQGEwJVUzESMBAGA1UEAxMJbG9j
YWxob3N0MIIBIjANBgkqhkiG9w0BAQEFAAOCAQ8AMIIBCgKCAQEAutayMt4QUx9d
r9rUP2SzIjf9Thaj8NaebtPuR+wVtLMNgL/8IZaLHUAWbYk1A4pFjMZuK2ZnDxwZ
z2LV5ghIqN8Q2kxHeXwCl1T5qOlZUDPNoHL94edeOkNc/wxpnvbChnEHpeu1x2H5
6f4/JlUs9AR8wL3NK4icaU3OPB6tLhiWqqDrciuVmUcWkLVZ7fF4zIsBM0DE6bA/
7IkEE1ybIgHMJc9AwUD6BKC5t/fYc5F/uH7pgiAf6ZyJJSi1+m+3SogoaFnVMFL5
5FumtPjk7S8D2FBhmlOGH62qDV/4UrUn3QWCJROg0BA83cBwFSRjiSIO8Fqa+rB1
Vgaqf7D3mwIDAQABo3sweTAJBgNVHRMEAjAAMCwGCWCGSAGG+EIBDQQfFh1PcGVu
U1NMIEdlbmVyYXRlZCBDZXJ0aWZpY2F0ZTAdBgNVHQ4EFgQUCzcv1kicES8ortxH
5l46HSQSDxowHwYDVR0jBBgwFoAUsDu8yfooXz4EH5tsx4to2AGw+D0wDQYJKoZI
hvcNAQELBQADggEBADsKrfInJtTbvJfnTlKLbAhNe+dm7IELDAT4uZI1Esm57dJe
t6yJZ3J+K09b4zrRCf7ozzOspYSVf0hNr1mHC0xvar9rB68zExn9cA38HJIEvgW5
lkbVgqT4O7ARLfAZJbrWzhx6F3bGgNJzoBoBSNYLEqk/UGaBG+mfHltv0RkSFHDT
3kyr04PW5U+7s+XGhxZH91lNnVKdAPAkeh5uFAENBwy2907AQHdl/azHqnN38ESx
MK1lgxrMvfqdgClh6bMm6DtVxxJ5Pk0x8SHQTl8fc8Ofzvlsfo4REI72YNIRrg8k
bhBxQgXt6ktBhoaEJnTtRoFINBZA5t9kycJ9axs=
-----END CERTIFICATE-----
